target datalayout = "e-m:e-p270:32:32-p271:32:32-p272:64:64-i64:64-i128:128-f80:128-n8:16:32:64-S128"
target triple = "x86_64-unknown-linux-gnu"

%"struct.icu_75::CharacterNode" = type { ptr, i16, i16, i16, i8, i8 }
%"class.icu_75::UVector" = type { %"class.icu_75::UObject", i32, i32, ptr, ptr, ptr }
%"class.icu_75::UObject" = type { ptr }
%"class.icu_75::TextTrieMap" = type { ptr, i8, ptr, i32, i32, ptr, i8, ptr }

@_ZTVN6icu_7511TextTrieMapE = unnamed_addr constant { [4 x ptr] } { [4 x ptr] [ptr null, ptr @_ZTIN6icu_7511TextTrieMapE, ptr @_ZN6icu_7511TextTrieMapD1Ev, ptr @_ZN6icu_7511TextTrieMapD0Ev] }, align 8

; Function Attrs: mustprogress nounwind uwtable
define linkonce_odr noundef i32 @_ZNK6icu_757UVector4sizeEv(ptr noundef nonnull align 8 dereferenceable(40) %this) #0 comdat align 2 {
entry:
  %this.addr = alloca ptr, align 8
  store ptr %this, ptr %this.addr, align 8
  %this1 = load ptr, ptr %this.addr, align 8
  %count = getelementptr inbounds %"class.icu_75::UVector", ptr %this1, i32 0, i32 1
  %0 = load i32, ptr %count, align 8
  ret i32 %0
}

; Function Attrs: mustprogress uwtable
define void @_ZN6icu_7513CharacterNode12deleteValuesEPFvPvE(ptr noundef nonnull align 8 dereferenceable(16) %this, ptr noundef %valueDeleter) #1 align 2 {
entry:
  %this.addr = alloca ptr, align 8
  %valueDeleter.addr = alloca ptr, align 8
  store ptr %this, ptr %this.addr, align 8
  store ptr %valueDeleter, ptr %valueDeleter.addr, align 8
  %this1 = load ptr, ptr %this.addr, align 8
  %fValues = getelementptr inbounds %"struct.icu_75::CharacterNode", ptr %this1, i32 0, i32 0
  %0 = load ptr, ptr %fValues, align 8
  %cmp = icmp eq ptr %0, null
  br i1 %cmp, label %if.then, label %if.else

if.then:                                          ; preds = %entry
  br label %if.end9

if.else:                                          ; preds = %entry
  %fHasValuesVector = getelementptr inbounds %"struct.icu_75::CharacterNode", ptr %this1, i32 0, i32 4
  %1 = load i8, ptr %fHasValuesVector, align 2
  %tobool = icmp ne i8 %1, 0
  br i1 %tobool, label %if.else6, label %if.then2

if.then2:                                         ; preds = %if.else
  %2 = load ptr, ptr %valueDeleter.addr, align 8
  %tobool3 = icmp ne ptr %2, null
  br i1 %tobool3, label %if.then4, label %if.end

if.then4:                                         ; preds = %if.then2
  %3 = load ptr, ptr %valueDeleter.addr, align 8
  %fValues5 = getelementptr inbounds %"struct.icu_75::CharacterNode", ptr %this1, i32 0, i32 0
  %4 = load ptr, ptr %fValues5, align 8
  call void %3(ptr noundef %4)
  br label %if.end

if.end:                                           ; preds = %if.then4, %if.then2
  br label %if.end8

if.else6:                                         ; preds = %if.else
  %fValues7 = getelementptr inbounds %"struct.icu_75::CharacterNode", ptr %this1, i32 0, i32 0
  %5 = load ptr, ptr %fValues7, align 8
  %isnull = icmp eq ptr %5, null
  br i1 %isnull, label %delete.end, label %delete.notnull

delete.notnull:                                   ; preds = %if.else6
  %vtable = load ptr, ptr %5, align 8
  %vfn = getelementptr inbounds ptr, ptr %vtable, i64 1
  %6 = load ptr, ptr %vfn, align 8
  call void %6(ptr noundef nonnull align 8 dereferenceable(40) %5) #10
  br label %delete.end

delete.end:                                       ; preds = %delete.notnull, %if.else6
  br label %if.end8

if.end8:                                          ; preds = %delete.end, %if.end
  br label %if.end9

if.end9:                                          ; preds = %if.end8, %if.then
  ret void
}

; Function Attrs: mustprogress nounwind uwtable
define void @_ZN6icu_7511TextTrieMapD2Ev(ptr noundef nonnull align 8 dereferenceable(56) %this) unnamed_addr #0 align 2 personality ptr @__gxx_personality_v0 {
entry:
  %this.addr = alloca ptr, align 8
  %index = alloca i32, align 4
  %i = alloca i32, align 4
  store ptr %this, ptr %this.addr, align 8
  %this1 = load ptr, ptr %this.addr, align 8
  store ptr getelementptr inbounds ({ [4 x ptr] }, ptr @_ZTVN6icu_7511TextTrieMapE, i32 0, i32 0, i32 2), ptr %this1, align 8
  store i32 0, ptr %index, align 4
  br label %for.cond

for.cond:                                         ; preds = %for.inc, %entry
  %0 = load i32, ptr %index, align 4
  %fNodesCount = getelementptr inbounds %"class.icu_75::TextTrieMap", ptr %this1, i32 0, i32 4
  %1 = load i32, ptr %fNodesCount, align 4
  %cmp = icmp slt i32 %0, %1
  br i1 %cmp, label %for.body, label %for.end

for.body:                                         ; preds = %for.cond
  %fNodes = getelementptr inbounds %"class.icu_75::TextTrieMap", ptr %this1, i32 0, i32 2
  %2 = load ptr, ptr %fNodes, align 8
  %3 = load i32, ptr %index, align 4
  %idxprom = sext i32 %3 to i64
  %arrayidx = getelementptr inbounds %"struct.icu_75::CharacterNode", ptr %2, i64 %idxprom
  %fValueDeleter = getelementptr inbounds %"class.icu_75::TextTrieMap", ptr %this1, i32 0, i32 7
  %4 = load ptr, ptr %fValueDeleter, align 8
  invoke void @_ZN6icu_7513CharacterNode12deleteValuesEPFvPvE(ptr noundef nonnull align 8 dereferenceable(16) %arrayidx, ptr noundef %4)
          to label %invoke.cont unwind label %terminate.lpad

invoke.cont:                                      ; preds = %for.body
  br label %for.inc

for.inc:                                          ; preds = %invoke.cont
  %5 = load i32, ptr %index, align 4
  %inc = add nsw i32 %5, 1
  store i32 %inc, ptr %index, align 4
  br label %for.cond, !llvm.loop !4

for.end:                                          ; preds = %for.cond
  %fNodes2 = getelementptr inbounds %"class.icu_75::TextTrieMap", ptr %this1, i32 0, i32 2
  %6 = load ptr, ptr %fNodes2, align 8
  invoke void @uprv_free_75(ptr noundef %6)
          to label %invoke.cont3 unwind label %terminate.lpad

invoke.cont3:                                     ; preds = %for.end
  %fLazyContents = getelementptr inbounds %"class.icu_75::TextTrieMap", ptr %this1, i32 0, i32 5
  %7 = load ptr, ptr %fLazyContents, align 8
  %cmp4 = icmp ne ptr %7, null
  br i1 %cmp4, label %if.then, label %if.end21

if.then:                                          ; preds = %invoke.cont3
  store i32 0, ptr %i, align 4
  br label %for.cond5

for.cond5:                                        ; preds = %for.inc17, %if.then
  %8 = load i32, ptr %i, align 4
  %fLazyContents6 = getelementptr inbounds %"class.icu_75::TextTrieMap", ptr %this1, i32 0, i32 5
  %9 = load ptr, ptr %fLazyContents6, align 8
  %call = invoke noundef i32 @_ZNK6icu_757UVector4sizeEv(ptr noundef nonnull align 8 dereferenceable(40) %9)
          to label %invoke.cont7 unwind label %terminate.lpad

invoke.cont7:                                     ; preds = %for.cond5
  %cmp8 = icmp slt i32 %8, %call
  br i1 %cmp8, label %for.body9, label %for.end19

for.body9:                                        ; preds = %invoke.cont7
  %fValueDeleter10 = getelementptr inbounds %"class.icu_75::TextTrieMap", ptr %this1, i32 0, i32 7
  %10 = load ptr, ptr %fValueDeleter10, align 8
  %tobool = icmp ne ptr %10, null
  br i1 %tobool, label %if.then11, label %if.end

if.then11:                                        ; preds = %for.body9
  %fValueDeleter12 = getelementptr inbounds %"class.icu_75::TextTrieMap", ptr %this1, i32 0, i32 7
  %11 = load ptr, ptr %fValueDeleter12, align 8
  %fLazyContents13 = getelementptr inbounds %"class.icu_75::TextTrieMap", ptr %this1, i32 0, i32 5
  %12 = load ptr, ptr %fLazyContents13, align 8
  %13 = load i32, ptr %i, align 4
  %add = add nsw i32 %13, 1
  %call15 = invoke noundef ptr @_ZNK6icu_757UVector9elementAtEi(ptr noundef nonnull align 8 dereferenceable(40) %12, i32 noundef %add)
          to label %invoke.cont14 unwind label %terminate.lpad

invoke.cont14:                                    ; preds = %if.then11
  invoke void %11(ptr noundef %call15)
          to label %invoke.cont16 unwind label %terminate.lpad

invoke.cont16:                                    ; preds = %invoke.cont14
  br label %if.end

if.end:                                           ; preds = %invoke.cont16, %for.body9
  br label %for.inc17

for.inc17:                                        ; preds = %if.end
  %14 = load i32, ptr %i, align 4
  %add18 = add nsw i32 %14, 2
  store i32 %add18, ptr %i, align 4
  br label %for.cond5, !llvm.loop !6

for.end19:                                        ; preds = %invoke.cont7
  %fLazyContents20 = getelementptr inbounds %"class.icu_75::TextTrieMap", ptr %this1, i32 0, i32 5
  %15 = load ptr, ptr %fLazyContents20, align 8
  %isnull = icmp eq ptr %15, null
  br i1 %isnull, label %delete.end, label %delete.notnull

delete.notnull:                                   ; preds = %for.end19
  %vtable = load ptr, ptr %15, align 8
  %vfn = getelementptr inbounds ptr, ptr %vtable, i64 1
  %16 = load ptr, ptr %vfn, align 8
  call void %16(ptr noundef nonnull align 8 dereferenceable(40) %15) #10
  br label %delete.end

delete.end:                                       ; preds = %delete.notnull, %for.end19
  br label %if.end21

if.end21:                                         ; preds = %delete.end, %invoke.cont3
  ret void

terminate.lpad:                                   ; preds = %invoke.cont14, %if.then11, %for.cond5, %for.end, %for.body
  %17 = landingpad { ptr, i32 }
          catch ptr null
  %18 = extractvalue { ptr, i32 } %17, 0
  call void @__clang_call_terminate(ptr %18) #12
  unreachable
}