; Function Attrs: mustprogress nounwind uwtable
define void @_ZN6icu_7511TextTrieMapD2Ev(ptr nocapture noundef nonnull align 8 dereferenceable(56) %this) unnamed_addr #0 align 2 personality ptr @__gxx_personality_v0 {
entry:
  store ptr getelementptr inbounds ({ [4 x ptr] }, ptr @_ZTVN6icu_7511TextTrieMapE, i64 0, i32 0, i64 2), ptr %this, align 8
  %fNodesCount = getelementptr inbounds i8, ptr %this, i64 28
  %0 = load i32, ptr %fNodesCount, align 4
  %cmp10 = icmp sgt i32 %0, 0
  br i1 %cmp10, label %for.body.lr.ph, label %for.end

for.body.lr.ph:                                   ; preds = %entry
  %fNodes = getelementptr inbounds i8, ptr %this, i64 16
  %fValueDeleter = getelementptr inbounds i8, ptr %this, i64 48
  br label %for.body

for.body:                                         ; preds = %for.body.lr.ph, %for.inc
  %indvars.iv = phi i64 [ 0, %for.body.lr.ph ], [ %indvars.iv.next, %for.inc ]
  %1 = load ptr, ptr %fNodes, align 8
  %arrayidx = getelementptr inbounds %"struct.icu_75::CharacterNode", ptr %1, i64 %indvars.iv
  %2 = load ptr, ptr %fValueDeleter, align 8
  %3 = load ptr, ptr %arrayidx, align 8
  %cmp.i = icmp eq ptr %3, null
  br i1 %cmp.i, label %for.inc, label %if.else.i

if.else.i:                                        ; preds = %for.body
  %fHasValuesVector.i = getelementptr inbounds i8, ptr %arrayidx, i64 14
  %4 = load i8, ptr %fHasValuesVector.i, align 2
  %tobool.not.i = icmp eq i8 %4, 0
  br i1 %tobool.not.i, label %if.then2.i, label %delete.notnull.i

if.then2.i:                                       ; preds = %if.else.i
  %tobool3.not.i = icmp eq ptr %2, null
  br i1 %tobool3.not.i, label %for.inc, label %if.then4.i

if.then4.i:                                       ; preds = %if.then2.i
  invoke void %2(ptr noundef nonnull %3)
          to label %for.inc unwind label %terminate.lpad.loopexit.split-lp.loopexit

delete.notnull.i:                                 ; preds = %if.else.i
  %vtable.i = load ptr, ptr %3, align 8
  %vfn.i = getelementptr inbounds i8, ptr %vtable.i, i64 8
  %5 = load ptr, ptr %vfn.i, align 8
  tail call void %5(ptr noundef nonnull align 8 dereferenceable(40) %3) #20
  br label %for.inc

for.inc:                                          ; preds = %delete.notnull.i, %if.then2.i, %for.body, %if.then4.i
  %indvars.iv.next = add nuw nsw i64 %indvars.iv, 1
  %6 = load i32, ptr %fNodesCount, align 4
  %7 = sext i32 %6 to i64
  %cmp = icmp slt i64 %indvars.iv.next, %7
  br i1 %cmp, label %for.body, label %for.end, !llvm.loop !4

for.end:                                          ; preds = %for.inc, %entry
  %fNodes2 = getelementptr inbounds i8, ptr %this, i64 16
  %8 = load ptr, ptr %fNodes2, align 8
  invoke void @uprv_free_75(ptr noundef %8)
          to label %invoke.cont3 unwind label %terminate.lpad.loopexit.split-lp.loopexit.split-lp

invoke.cont3:                                     ; preds = %for.end
  %fLazyContents = getelementptr inbounds i8, ptr %this, i64 32
  %9 = load ptr, ptr %fLazyContents, align 8
  %cmp4.not = icmp eq ptr %9, null
  br i1 %cmp4.not, label %if.end21, label %for.cond5.preheader

for.cond5.preheader:                              ; preds = %invoke.cont3
  %count.i12 = getelementptr inbounds i8, ptr %9, i64 8
  %10 = load i32, ptr %count.i12, align 8
  %cmp813 = icmp sgt i32 %10, 0
  br i1 %cmp813, label %for.body9.lr.ph, label %delete.notnull

for.body9.lr.ph:                                  ; preds = %for.cond5.preheader
  %fValueDeleter10 = getelementptr inbounds i8, ptr %this, i64 48
  %11 = load ptr, ptr %fValueDeleter10, align 8
  %12 = icmp eq ptr %11, null
  br i1 %12, label %delete.notnull, label %for.body9

for.body9thread-pre-split:                        ; preds = %for.inc17
  %.pr = load ptr, ptr %fValueDeleter10, align 8
  br label %for.body9

for.body9:                                        ; preds = %for.body9.lr.ph, %for.body9thread-pre-split
  %13 = phi ptr [ %.pr, %for.body9thread-pre-split ], [ %11, %for.body9.lr.ph ]
  %14 = phi ptr [ %15, %for.body9thread-pre-split ], [ %9, %for.body9.lr.ph ]
  %i.014 = phi i32 [ %add18, %for.body9thread-pre-split ], [ 0, %for.body9.lr.ph ]
  %tobool.not = icmp eq ptr %13, null
  br i1 %tobool.not, label %for.inc17, label %if.then11

if.then11:                                        ; preds = %for.body9
  %add = or disjoint i32 %i.014, 1
  %call15 = invoke noundef ptr @_ZNK6icu_757UVector9elementAtEi(ptr noundef nonnull align 8 dereferenceable(40) %14, i32 noundef %add)
          to label %invoke.cont14 unwind label %terminate.lpad.loopexit

invoke.cont14:                                    ; preds = %if.then11
  invoke void %13(ptr noundef %call15)
          to label %invoke.cont14.for.inc17_crit_edge unwind label %terminate.lpad.loopexit

invoke.cont14.for.inc17_crit_edge:                ; preds = %invoke.cont14
  %.pre = load ptr, ptr %fLazyContents, align 8
  br label %for.inc17

for.inc17:                                        ; preds = %invoke.cont14.for.inc17_crit_edge, %for.body9
  %15 = phi ptr [ %.pre, %invoke.cont14.for.inc17_crit_edge ], [ %14, %for.body9 ]
  %add18 = add nuw nsw i32 %i.014, 2
  %count.i = getelementptr inbounds i8, ptr %15, i64 8
  %16 = load i32, ptr %count.i, align 8
  %cmp8 = icmp slt i32 %add18, %16
  br i1 %cmp8, label %for.body9thread-pre-split, label %delete.notnull, !llvm.loop !6

delete.notnull:                                   ; preds = %for.inc17, %for.body9.lr.ph, %for.cond5.preheader
  %.lcssa = phi ptr [ %9, %for.cond5.preheader ], [ %9, %for.body9.lr.ph ], [ %15, %for.inc17 ]
  %vtable = load ptr, ptr %.lcssa, align 8
  %vfn = getelementptr inbounds i8, ptr %vtable, i64 8
  %17 = load ptr, ptr %vfn, align 8
  tail call void %17(ptr noundef nonnull align 8 dereferenceable(40) %.lcssa) #20
  br label %if.end21

if.end21:                                         ; preds = %delete.notnull, %invoke.cont3
  ret void

terminate.lpad.loopexit:                          ; preds = %if.then11, %invoke.cont14
  %lpad.loopexit = landingpad { ptr, i32 }
          catch ptr null
  br label %terminate.lpad

terminate.lpad.loopexit.split-lp.loopexit:        ; preds = %if.then4.i
  %lpad.loopexit6 = landingpad { ptr, i32 }
          catch ptr null
  br label %terminate.lpad

terminate.lpad.loopexit.split-lp.loopexit.split-lp: ; preds = %for.end
  %lpad.loopexit.split-lp7 = landingpad { ptr, i32 }
          catch ptr null
  br label %terminate.lpad

terminate.lpad:                                   ; preds = %terminate.lpad.loopexit.split-lp.loopexit, %terminate.lpad.loopexit.split-lp.loopexit.split-lp, %terminate.lpad.loopexit
  %lpad.phi = phi { ptr, i32 } [ %lpad.loopexit, %terminate.lpad.loopexit ], [ %lpad.loopexit6, %terminate.lpad.loopexit.split-lp.loopexit ], [ %lpad.loopexit.split-lp7, %terminate.lpad.loopexit.split-lp.loopexit.split-lp ]
  %18 = extractvalue { ptr, i32 } %lpad.phi, 0
  tail call void @__clang_call_terminate(ptr %18) #22
  unreachable
}